ccopy_reg
_reconstructor
p1
(ctensorflow.python.platform.flags
_FlagValues
p2
c__builtin__
object
p3
NtRp4
(dp5
S'__flags'
p6
(dp7
S'eval_every'
p8
I100
sS'keep_prob_layer1'
p9
F0.90000000000000002
sS'cell_type'
p10
S'BASIC'
p11
sS'state1_size'
p12
I100
sS'verbose'
p13
I01
sS'l2_reg_lambda'
p14
F0
sS'keep_prob_layer3'
p15
F0.69999999999999996
sS'learning_rate'
p16
F0.050000000000000003
sS'num_layers'
p17
I1
sS'num_steps'
p18
I10
sS'state2_size'
p19
I100
sS'state3_size'
p20
I100
sS'tf_'
p21
I01
sS'batch_size'
p22
I64
sS'is_training'
p23
S'FALSE'
p24
sS'save_dir'
p25
S'save'
p26
sS'nb_epochs'
p27
I10
sS'keep_prob_layer2'
p28
F0.80000000000000004
sS'num_classes'
p29
I2
ssS'__parsed'
p30
I01
sb.